Certificate:
    Data:
        Version: 3 (0x2)
        Serial Number: 2 (0x2)
    Signature Algorithm: sha256WithRSAEncryption
        Issuer: C=GR, ST=Central Macedonia, L=Thessaloniki, O=Parabing Creations, OU=Parabing, CN=VPNsRUS/name=VPNsRUS/emailAddress=nobody@parabing.com
        Validity
            Not Before: May  1 16:04:43 2016 GMT
            Not After : Apr 29 16:04:43 2026 GMT
        Subject: C=GR, ST=Central Macedonia, L=Thessaloniki, O=Parabing Creations, OU=Parabing, CN=laptop/name=VPNsRUS/emailAddress=nobody@parabing.com
        Subject Public Key Info:
            Public Key Algorithm: rsaEncryption
                Public-Key: (2048 bit)
                Modulus:
                    00:b3:37:11:f9:0b:9a:93:5a:8f:02:92:dc:53:e6:
                    2f:dc:a0:9b:4e:62:f1:85:78:3b:45:e4:97:95:96:
                    75:46:75:d8:92:d0:91:57:57:c6:5d:12:b3:4e:2a:
                    83:f3:ff:31:ab:d0:78:fb:38:96:3a:c3:ad:a8:c2:
                    e9:89:ad:6f:75:d3:f2:7d:35:88:2c:5b:b7:6e:3d:
                    df:c4:c2:4b:f2:3a:11:71:26:5c:aa:fb:4c:6d:66:
                    54:3b:05:45:1f:5c:71:3c:b5:42:7a:97:ab:dc:dd:
                    5d:02:ee:7f:0c:b6:9f:86:98:a8:a8:61:48:26:c5:
                    0e:8d:3b:88:78:30:70:73:e2:4e:9d:5c:42:96:33:
                    e7:ee:ec:4e:4c:80:6d:dc:24:44:b3:bb:1d:8b:0f:
                    80:a5:0c:1e:14:15:75:a8:f2:c2:67:15:0c:6b:49:
                    f1:a0:3d:2e:ae:82:95:4b:14:b3:c5:ce:93:ae:4b:
                    52:9c:76:ec:86:34:71:66:53:e6:a0:41:08:57:ba:
                    cc:ab:a7:68:b4:a2:9f:fa:b9:ec:23:b3:0e:ca:5f:
                    81:7b:d0:28:36:ce:3c:94:3f:81:84:5c:54:ad:69:
                    d9:fa:c7:ff:56:2c:57:bf:e5:01:f8:3a:d5:b1:df:
                    07:64:56:a1:91:0f:37:e9:20:f9:b4:d6:19:94:40:
                    90:51
                Exponent: 65537 (0x10001)
        X509v3 extensions:
            X509v3 Basic Constraints: 
                CA:FALSE
            Netscape Comment: 
                Easy-RSA Generated Certificate
            X509v3 Subject Key Identifier: 
                92:3A:B3:D9:A6:12:D1:51:A4:4B:95:1C:3D:C5:7B:CE:BB:FA:9A:91
            X509v3 Authority Key Identifier: 
                keyid:4F:95:59:B4:78:B7:91:66:FB:88:37:CC:BB:FA:37:74:D5:C6:CE:BC
                DirName:/C=GR/ST=Central Macedonia/L=Thessaloniki/O=Parabing Creations/OU=Parabing/CN=VPNsRUS/name=VPNsRUS/emailAddress=nobody@parabing.com
                serial:E1:20:EF:EC:F7:3F:5B:5A

            X509v3 Extended Key Usage: 
                TLS Web Client Authentication
            X509v3 Key Usage: 
                Digital Signature
            X509v3 Subject Alternative Name: 
                DNS:laptop
    Signature Algorithm: sha256WithRSAEncryption
         80:fa:d5:4b:23:c3:ca:df:2a:c8:1e:56:30:60:c6:ea:14:01:
         4a:ed:49:70:a0:49:ad:57:cd:05:86:a8:c7:e9:06:38:5a:1c:
         43:c6:3f:48:be:3e:29:00:bc:48:5c:ad:b4:93:60:ee:36:1c:
         e5:3f:89:28:44:5d:9d:cc:f4:b6:3e:32:96:b8:bd:c8:b2:f7:
         e3:9a:a5:52:ba:d9:ce:d3:7b:2d:49:2b:af:0e:45:aa:a1:a7:
         6b:f8:f4:49:46:0e:43:6f:ac:83:74:81:22:21:67:47:f5:89:
         17:ea:43:96:af:1b:67:44:d3:1b:f0:e2:5a:bf:f4:94:28:54:
         e0:19:0a:d4:15:30:9e:e0:0e:c9:62:0b:82:d6:4e:15:b6:49:
         6c:1f:61:61:04:11:f8:c0:21:55:4b:16:0b:af:bf:93:6f:7d:
         04:c0:8e:da:31:83:71:a0:90:6d:8f:f8:92:77:43:bc:fa:fc:
         23:f0:79:ae:5e:b0:87:69:3d:e1:5a:73:ed:29:6e:ee:70:92:
         7c:9e:da:fc:ae:9b:e1:05:c8:b0:ae:59:3d:66:09:e7:f2:bb:
         70:ee:e5:1d:e6:c4:5e:4a:d0:32:0d:dc:cd:80:e1:60:5d:d1:
         18:90:cf:49:bb:a7:c3:3c:02:f9:c0:e4:89:25:57:53:68:3b:
         c1:23:c5:b7
-----BEGIN CERTIFICATE-----
MIIFcDCCBFigAwIBAgIBAjANBgkqhkiG9w0BAQsFADCBuDELMAkGA1UEBhMCR1Ix
GjAYBgNVBAgTEUNlbnRyYWwgTWFjZWRvbmlhMRUwEwYDVQQHEwxUaGVzc2Fsb25p
a2kxGzAZBgNVBAoTElBhcmFiaW5nIENyZWF0aW9uczERMA8GA1UECxMIUGFyYWJp
bmcxEDAOBgNVBAMTB1ZQTnNSVVMxEDAOBgNVBCkTB1ZQTnNSVVMxIjAgBgkqhkiG
9w0BCQEWE25vYm9keUBwYXJhYmluZy5jb20wHhcNMTYwNTAxMTYwNDQzWhcNMjYw
NDI5MTYwNDQzWjCBtzELMAkGA1UEBhMCR1IxGjAYBgNVBAgTEUNlbnRyYWwgTWFj
ZWRvbmlhMRUwEwYDVQQHEwxUaGVzc2Fsb25pa2kxGzAZBgNVBAoTElBhcmFiaW5n
IENyZWF0aW9uczERMA8GA1UECxMIUGFyYWJpbmcxDzANBgNVBAMTBmxhcHRvcDEQ
MA4GA1UEKRMHVlBOc1JVUzEiMCAGCSqGSIb3DQEJARYTbm9ib2R5QHBhcmFiaW5n
LmNvbTCCASIwDQYJKoZIhvcNAQEBBQADggEPADCCAQoCggEBALM3EfkLmpNajwKS
3FPmL9ygm05i8YV4O0Xkl5WWdUZ12JLQkVdXxl0Ss04qg/P/MavQePs4ljrDrajC
6Ymtb3XT8n01iCxbt24938TCS/I6EXEmXKr7TG1mVDsFRR9ccTy1QnqXq9zdXQLu
fwy2n4aYqKhhSCbFDo07iHgwcHPiTp1cQpYz5+7sTkyAbdwkRLO7HYsPgKUMHhQV
dajywmcVDGtJ8aA9Lq6ClUsUs8XOk65LUpx27IY0cWZT5qBBCFe6zKunaLSin/q5
7COzDspfgXvQKDbOPJQ/gYRcVK1p2frH/1YsV7/lAfg61bHfB2RWoZEPN+kg+bTW
GZRAkFECAwEAAaOCAYIwggF+MAkGA1UdEwQCMAAwLQYJYIZIAYb4QgENBCAWHkVh
c3ktUlNBIEdlbmVyYXRlZCBDZXJ0aWZpY2F0ZTAdBgNVHQ4EFgQUkjqz2aYS0VGk
S5UcPcV7zrv6mpEwge0GA1UdIwSB5TCB4oAUT5VZtHi3kWb7iDfMu/o3dNXGzryh
gb6kgbswgbgxCzAJBgNVBAYTAkdSMRowGAYDVQQIExFDZW50cmFsIE1hY2Vkb25p
YTEVMBMGA1UEBxMMVGhlc3NhbG9uaWtpMRswGQYDVQQKExJQYXJhYmluZyBDcmVh
dGlvbnMxETAPBgNVBAsTCFBhcmFiaW5nMRAwDgYDVQQDEwdWUE5zUlVTMRAwDgYD
VQQpEwdWUE5zUlVTMSIwIAYJKoZIhvcNAQkBFhNub2JvZHlAcGFyYWJpbmcuY29t
ggkA4SDv7Pc/W1owEwYDVR0lBAwwCgYIKwYBBQUHAwIwCwYDVR0PBAQDAgeAMBEG
A1UdEQQKMAiCBmxhcHRvcDANBgkqhkiG9w0BAQsFAAOCAQEAgPrVSyPDyt8qyB5W
MGDG6hQBSu1JcKBJrVfNBYaox+kGOFocQ8Y/SL4+KQC8SFyttJNg7jYc5T+JKERd
ncz0tj4ylri9yLL345qlUrrZztN7LUkrrw5FqqGna/j0SUYOQ2+sg3SBIiFnR/WJ
F+pDlq8bZ0TTG/DiWr/0lChU4BkK1BUwnuAOyWILgtZOFbZJbB9hYQQR+MAhVUsW
C6+/k299BMCO2jGDcaCQbY/4kndDvPr8I/B5rl6wh2k94Vpz7Slu7nCSfJ7a/K6b
4QXIsK5ZPWYJ5/K7cO7lHebEXkrQMg3czYDhYF3RGJDPSbunwzwC+cDkiSVXU2g7
wSPFtw==
-----END CERTIFICATE-----
